target datalayout = "e-m:e-p270:32:32-p271:32:32-p272:64:64-i64:64-i128:128-f80:128-n8:16:32:64-S128"
target triple = "x86_64-pc-linux-gnu"

%struct.uv_spinlock_t = type { i32 }
%struct.termios = type { i32, i32, i32, i32, i8, [32 x i8], i32, i32 }
%struct.uv_tty_s = type { ptr, ptr, i32, ptr, [2 x ptr], %union.anon, ptr, i32, i64, ptr, ptr, ptr, ptr, %struct.uv__io_s, [2 x ptr], [2 x ptr], ptr, i32, i32, ptr, %struct.termios, i32 }
%union.anon = type { [4 x ptr] }
%struct.uv__io_s = type { ptr, [2 x ptr], [2 x ptr], i32, i32, i32 }

@termios_spinlock = internal global %struct.uv_spinlock_t zeroinitializer, align 4
@orig_termios_fd = internal global i32 -1, align 4
@orig_termios = internal global %struct.termios zeroinitializer, align 4

; Function Attrs: nounwind uwtable
define internal i32 @cmpxchgi(ptr noundef %0, i32 noundef %1, i32 noundef %2) #0 {
  %4 = alloca ptr, align 8
  %5 = alloca i32, align 4
  %6 = alloca i32, align 4
  %7 = alloca i32, align 4
  store ptr %0, ptr %4, align 8, !tbaa !42
  store i32 %1, ptr %5, align 4, !tbaa !4
  store i32 %2, ptr %6, align 4, !tbaa !4
  call void @llvm.lifetime.start.p0(i64 4, ptr %7) #6
  %8 = load ptr, ptr %4, align 8, !tbaa !42
  %9 = load i32, ptr %6, align 4, !tbaa !4
  %10 = load i32, ptr %5, align 4, !tbaa !4
  %11 = call i32 asm sideeffect "lock; cmpxchg $2, $1;", "={ax},=*m,r,0,*m,~{memory},~{dirflag},~{fpsr},~{flags}"(ptr elementtype(i32) %8, i32 %9, i32 %10, ptr elementtype(i32) %8) #6, !srcloc !49
  store i32 %11, ptr %7, align 4, !tbaa !4
  %12 = load i32, ptr %7, align 4, !tbaa !4
  call void @llvm.lifetime.end.p0(i64 4, ptr %7) #6
  ret i32 %12
}

; Function Attrs: nounwind uwtable
define internal void @cpu_relax() #0 {
  call void asm sideeffect "rep; nop", "~{memory},~{dirflag},~{fpsr},~{flags}"() #6, !srcloc !48
  ret void
}

; Function Attrs: nounwind uwtable
define internal i32 @uv_spinlock_trylock(ptr noundef %0) #0 {
  %2 = alloca ptr, align 8
  store ptr %0, ptr %2, align 8, !tbaa !40
  %3 = load ptr, ptr %2, align 8, !tbaa !40
  %4 = getelementptr inbounds nuw %struct.uv_spinlock_t, ptr %3, i32 0, i32 0
  %5 = call i32 @cmpxchgi(ptr noundef %4, i32 noundef 0, i32 noundef 1)
  %6 = icmp eq i32 0, %5
  %7 = zext i1 %6 to i32
  ret i32 %7
}

; Function Attrs: nounwind uwtable
define dso_local i32 @uv__tcsetattr(i32 noundef %0, i32 noundef %1, ptr noundef %2) #0 {
  %4 = alloca i32, align 4
  %5 = alloca i32, align 4
  %6 = alloca i32, align 4
  %7 = alloca ptr, align 8
  %8 = alloca i32, align 4
  %9 = alloca i32, align 4
  store i32 %0, ptr %5, align 4, !tbaa !4
  store i32 %1, ptr %6, align 4, !tbaa !4
  store ptr %2, ptr %7, align 8, !tbaa !8
  call void @llvm.lifetime.start.p0(i64 4, ptr %8) #6
  br label %10

10:                                               ; preds = %22, %3
  %11 = load i32, ptr %5, align 4, !tbaa !4
  %12 = load i32, ptr %6, align 4, !tbaa !4
  %13 = load ptr, ptr %7, align 8, !tbaa !8
  %14 = call i32 @tcsetattr(i32 noundef %11, i32 noundef %12, ptr noundef %13) #6
  store i32 %14, ptr %8, align 4, !tbaa !4
  br label %15

15:                                               ; preds = %10
  %16 = load i32, ptr %8, align 4, !tbaa !4
  %17 = icmp eq i32 %16, -1
  br i1 %17, label %18, label %22

18:                                               ; preds = %15
  %19 = call ptr @__errno_location() #7
  %20 = load i32, ptr %19, align 4, !tbaa !4
  %21 = icmp eq i32 %20, 4
  br label %22

22:                                               ; preds = %18, %15
  %23 = phi i1 [ false, %15 ], [ %21, %18 ]
  br i1 %23, label %10, label %24, !llvm.loop !11

24:                                               ; preds = %22
  %25 = load i32, ptr %8, align 4, !tbaa !4
  %26 = icmp eq i32 %25, -1
  br i1 %26, label %27, label %31

27:                                               ; preds = %24
  %28 = call ptr @__errno_location() #7
  %29 = load i32, ptr %28, align 4, !tbaa !4
  %30 = sub nsw i32 0, %29
  store i32 %30, ptr %4, align 4
  store i32 1, ptr %9, align 4
  br label %32

31:                                               ; preds = %24
  store i32 0, ptr %4, align 4
  store i32 1, ptr %9, align 4
  br label %32

32:                                               ; preds = %31, %27
  call void @llvm.lifetime.end.p0(i64 4, ptr %8) #6
  %33 = load i32, ptr %4, align 4
  ret i32 %33
}

; Function Attrs: nounwind uwtable
define internal void @uv__tty_make_raw(ptr noundef %0) #0 {
  %2 = alloca ptr, align 8
  store ptr %0, ptr %2, align 8, !tbaa !8
  %3 = load ptr, ptr %2, align 8, !tbaa !8
  call void @cfmakeraw(ptr noundef %3) #6
  ret void
}

; Function Attrs: nounwind uwtable
define internal void @uv_spinlock_unlock(ptr noundef %0) #0 {
  %2 = alloca ptr, align 8
  store ptr %0, ptr %2, align 8, !tbaa !40
  %3 = load ptr, ptr %2, align 8, !tbaa !40
  %4 = getelementptr inbounds nuw %struct.uv_spinlock_t, ptr %3, i32 0, i32 0
  store volatile i32 0, ptr %4, align 4, !tbaa !4
  ret void
}

; Function Attrs: nounwind uwtable
define internal void @uv_spinlock_lock(ptr noundef %0) #0 {
  %2 = alloca ptr, align 8
  store ptr %0, ptr %2, align 8, !tbaa !40
  br label %3

3:                                                ; preds = %8, %1
  %4 = load ptr, ptr %2, align 8, !tbaa !40
  %5 = call i32 @uv_spinlock_trylock(ptr noundef %4)
  %6 = icmp ne i32 %5, 0
  %7 = xor i1 %6, true
  br i1 %7, label %8, label %9

8:                                                ; preds = %3
  call void @cpu_relax()
  br label %3, !llvm.loop !41

9:                                                ; preds = %3
  ret void
}

; Function Attrs: nounwind uwtable
define dso_local i32 @uv_tty_set_mode(ptr noundef %0, i32 noundef %1) #0 {
  %3 = alloca i32, align 4
  %4 = alloca ptr, align 8
  %5 = alloca i32, align 4
  %6 = alloca %struct.termios, align 4
  %7 = alloca i32, align 4
  %8 = alloca i32, align 4
  %9 = alloca i32, align 4
  store ptr %0, ptr %4, align 8, !tbaa !15
  store i32 %1, ptr %5, align 4, !tbaa !4
  call void @llvm.lifetime.start.p0(i64 60, ptr %6) #6
  call void @llvm.lifetime.start.p0(i64 4, ptr %7) #6
  call void @llvm.lifetime.start.p0(i64 4, ptr %8) #6
  %10 = load ptr, ptr %4, align 8, !tbaa !15
  %11 = getelementptr inbounds nuw %struct.uv_tty_s, ptr %10, i32 0, i32 21
  %12 = load i32, ptr %11, align 4, !tbaa !18
  %13 = load i32, ptr %5, align 4, !tbaa !4
  %14 = icmp eq i32 %12, %13
  br i1 %14, label %15, label %16

15:                                               ; preds = %2
  store i32 0, ptr %3, align 4
  store i32 1, ptr %9, align 4
  br label %91

16:                                               ; preds = %2
  %17 = load ptr, ptr %4, align 8, !tbaa !15
  %18 = getelementptr inbounds nuw %struct.uv_tty_s, ptr %17, i32 0, i32 13
  %19 = getelementptr inbounds nuw %struct.uv__io_s, ptr %18, i32 0, i32 5
  %20 = load i32, ptr %19, align 8, !tbaa !33
  store i32 %20, ptr %7, align 4, !tbaa !4
  %21 = load ptr, ptr %4, align 8, !tbaa !15
  %22 = getelementptr inbounds nuw %struct.uv_tty_s, ptr %21, i32 0, i32 21
  %23 = load i32, ptr %22, align 4, !tbaa !18
  %24 = icmp eq i32 %23, 0
  br i1 %24, label %25, label %58

25:                                               ; preds = %16
  %26 = load i32, ptr %5, align 4, !tbaa !4
  %27 = icmp ne i32 %26, 0
  br i1 %27, label %28, label %58

28:                                               ; preds = %25
  br label %29

29:                                               ; preds = %41, %28
  %30 = load i32, ptr %7, align 4, !tbaa !4
  %31 = load ptr, ptr %4, align 8, !tbaa !15
  %32 = getelementptr inbounds nuw %struct.uv_tty_s, ptr %31, i32 0, i32 20
  %33 = call i32 @tcgetattr(i32 noundef %30, ptr noundef %32) #6
  store i32 %33, ptr %8, align 4, !tbaa !4
  br label %34

34:                                               ; preds = %29
  %35 = load i32, ptr %8, align 4, !tbaa !4
  %36 = icmp eq i32 %35, -1
  br i1 %36, label %37, label %41

37:                                               ; preds = %34
  %38 = call ptr @__errno_location() #7
  %39 = load i32, ptr %38, align 4, !tbaa !4
  %40 = icmp eq i32 %39, 4
  br label %41

41:                                               ; preds = %37, %34
  %42 = phi i1 [ false, %34 ], [ %40, %37 ]
  br i1 %42, label %29, label %43, !llvm.loop !34

43:                                               ; preds = %41
  %44 = load i32, ptr %8, align 4, !tbaa !4
  %45 = icmp eq i32 %44, -1
  br i1 %45, label %46, label %50

46:                                               ; preds = %43
  %47 = call ptr @__errno_location() #7
  %48 = load i32, ptr %47, align 4, !tbaa !4
  %49 = sub nsw i32 0, %48
  store i32 %49, ptr %3, align 4
  store i32 1, ptr %9, align 4
  br label %91

50:                                               ; preds = %43
  call void @uv_spinlock_lock(ptr noundef @termios_spinlock)
  %51 = load i32, ptr @orig_termios_fd, align 4, !tbaa !4
  %52 = icmp eq i32 %51, -1
  br i1 %52, label %53, label %57

53:                                               ; preds = %50
  %54 = load ptr, ptr %4, align 8, !tbaa !15
  %55 = getelementptr inbounds nuw %struct.uv_tty_s, ptr %54, i32 0, i32 20
  call void @llvm.memcpy.p0.p0.i64(ptr align 4 @orig_termios, ptr align 8 %55, i64 60, i1 false), !tbaa.struct !35
  %56 = load i32, ptr %7, align 4, !tbaa !4
  store i32 %56, ptr @orig_termios_fd, align 4, !tbaa !4
  br label %57

57:                                               ; preds = %53, %50
  call void @uv_spinlock_unlock(ptr noundef @termios_spinlock)
  br label %58

58:                                               ; preds = %57, %25, %16
  %59 = load ptr, ptr %4, align 8, !tbaa !15
  %60 = getelementptr inbounds nuw %struct.uv_tty_s, ptr %59, i32 0, i32 20
  call void @llvm.memcpy.p0.p0.i64(ptr align 4 %6, ptr align 8 %60, i64 60, i1 false), !tbaa.struct !35
  %61 = load i32, ptr %5, align 4, !tbaa !4
  switch i32 %61, label %80 [
    i32 0, label %80
    i32 1, label %62
    i32 2, label %79
  ]

62:                                               ; preds = %58
  %63 = getelementptr inbounds nuw %struct.termios, ptr %6, i32 0, i32 0
  %64 = load i32, ptr %63, align 4, !tbaa !36
  %65 = and i32 %64, -1331
  store i32 %65, ptr %63, align 4, !tbaa !36
  %66 = getelementptr inbounds nuw %struct.termios, ptr %6, i32 0, i32 1
  %67 = load i32, ptr %66, align 4, !tbaa !37
  %68 = or i32 %67, 4
  store i32 %68, ptr %66, align 4, !tbaa !37
  %69 = getelementptr inbounds nuw %struct.termios, ptr %6, i32 0, i32 2
  %70 = load i32, ptr %69, align 4, !tbaa !38
  %71 = or i32 %70, 48
  store i32 %71, ptr %69, align 4, !tbaa !38
  %72 = getelementptr inbounds nuw %struct.termios, ptr %6, i32 0, i32 3
  %73 = load i32, ptr %72, align 4, !tbaa !39
  %74 = and i32 %73, -32780
  store i32 %74, ptr %72, align 4, !tbaa !39
  %75 = getelementptr inbounds nuw %struct.termios, ptr %6, i32 0, i32 5
  %76 = getelementptr inbounds [32 x i8], ptr %75, i64 0, i64 6
  store i8 1, ptr %76, align 1, !tbaa !29
  %77 = getelementptr inbounds nuw %struct.termios, ptr %6, i32 0, i32 5
  %78 = getelementptr inbounds [32 x i8], ptr %77, i64 0, i64 5
  store i8 0, ptr %78, align 1, !tbaa !29
  br label %80

79:                                               ; preds = %58
  call void @uv__tty_make_raw(ptr noundef %6)
  br label %80

80:                                               ; preds = %58, %79, %62, %58
  %81 = load i32, ptr %7, align 4, !tbaa !4
  %82 = call i32 @uv__tcsetattr(i32 noundef %81, i32 noundef 1, ptr noundef %6)
  store i32 %82, ptr %8, align 4, !tbaa !4
  %83 = load i32, ptr %8, align 4, !tbaa !4
  %84 = icmp eq i32 %83, 0
  br i1 %84, label %85, label %89

85:                                               ; preds = %80
  %86 = load i32, ptr %5, align 4, !tbaa !4
  %87 = load ptr, ptr %4, align 8, !tbaa !15
  %88 = getelementptr inbounds nuw %struct.uv_tty_s, ptr %87, i32 0, i32 21
  store i32 %86, ptr %88, align 4, !tbaa !18
  br label %89

89:                                               ; preds = %85, %80
  %90 = load i32, ptr %8, align 4, !tbaa !4
  store i32 %90, ptr %3, align 4
  store i32 1, ptr %9, align 4
  br label %91

91:                                               ; preds = %89, %46, %15
  call void @llvm.lifetime.end.p0(i64 4, ptr %8) #6
  call void @llvm.lifetime.end.p0(i64 4, ptr %7) #6
  call void @llvm.lifetime.end.p0(i64 60, ptr %6) #6
  %92 = load i32, ptr %3, align 4
  ret i32 %92
}