; Function Attrs: nounwind uwtable
define dso_local range(i32 -2147483647, -2147483648) i32 @uv_tty_set_mode(ptr noundef %0, i32 noundef %1) local_unnamed_addr #0 {
  %3 = alloca %struct.termios, align 4
  call void @llvm.lifetime.start.p0(i64 60, ptr nonnull %3) #8
  %4 = getelementptr inbounds nuw i8, ptr %0, i64 308
  %5 = load i32, ptr %4, align 4, !tbaa !11
  %6 = icmp eq i32 %5, %1
  br i1 %6, label %53, label %7

7:                                                ; preds = %2
  %8 = getelementptr inbounds nuw i8, ptr %0, i64 184
  %9 = load i32, ptr %8, align 8, !tbaa !27
  %10 = icmp eq i32 %5, 0
  %11 = icmp ne i32 %1, 0
  %or.cond = and i1 %11, %10
  br i1 %or.cond, label %.preheader, label %27

.preheader:                                       ; preds = %7
  %12 = getelementptr inbounds nuw i8, ptr %0, i64 248
  br label %13

13:                                               ; preds = %.preheader, %16
  %14 = tail call i32 @tcgetattr(i32 noundef %9, ptr noundef nonnull %12) #8
  %15 = icmp eq i32 %14, -1
  br i1 %15, label %16, label %.critedge21

16:                                               ; preds = %13
  %17 = tail call ptr @__errno_location() #9
  %18 = load i32, ptr %17, align 4, !tbaa !4
  %19 = icmp eq i32 %18, 4
  br i1 %19, label %13, label %.critedge, !llvm.loop !28

.critedge:                                        ; preds = %16
  %20 = sub nsw i32 0, %18
  br label %53

.critedge21:                                      ; preds = %13
  %21 = tail call i32 asm sideeffect "lock; cmpxchg $2, $1;", "={ax},=*m,r,0,*m,~{memory},~{dirflag},~{fpsr},~{flags}"(ptr nonnull elementtype(i32) @termios_spinlock, i32 1, i32 0, ptr nonnull elementtype(i32) @termios_spinlock) #8, !srcloc !29
  %.not1.i = icmp eq i32 %21, 0
  br i1 %.not1.i, label %uv_spinlock_lock.exit, label %.lr.ph.i

.lr.ph.i:                                         ; preds = %.critedge21, %.lr.ph.i
  tail call void asm sideeffect "rep; nop", "~{memory},~{dirflag},~{fpsr},~{flags}"() #8, !srcloc !30
  %22 = tail call i32 asm sideeffect "lock; cmpxchg $2, $1;", "={ax},=*m,r,0,*m,~{memory},~{dirflag},~{fpsr},~{flags}"(ptr nonnull elementtype(i32) @termios_spinlock, i32 1, i32 0, ptr nonnull elementtype(i32) @termios_spinlock) #8, !srcloc !29
  %.not.i = icmp eq i32 %22, 0
  br i1 %.not.i, label %uv_spinlock_lock.exit, label %.lr.ph.i, !llvm.loop !31

uv_spinlock_lock.exit:                            ; preds = %.lr.ph.i, %.critedge21
  %23 = load i32, ptr @orig_termios_fd, align 4, !tbaa !4
  %24 = icmp eq i32 %23, -1
  br i1 %24, label %25, label %26

25:                                               ; preds = %uv_spinlock_lock.exit
  tail call void @llvm.memcpy.p0.p0.i64(ptr noundef nonnull align 4 dereferenceable(60) @orig_termios, ptr noundef nonnull align 8 dereferenceable(60) %12, i64 60, i1 false), !tbaa.struct !32
  store i32 %9, ptr @orig_termios_fd, align 4, !tbaa !4
  br label %26

26:                                               ; preds = %25, %uv_spinlock_lock.exit
  store volatile i32 0, ptr @termios_spinlock, align 4, !tbaa !4
  br label %27

27:                                               ; preds = %26, %7
  %28 = getelementptr inbounds nuw i8, ptr %0, i64 248
  call void @llvm.memcpy.p0.p0.i64(ptr noundef nonnull align 4 dereferenceable(60) %3, ptr noundef nonnull align 8 dereferenceable(60) %28, i64 60, i1 false), !tbaa.struct !32
  switch i32 %1, label %.preheader30 [
    i32 2, label %43
    i32 1, label %29
  ]

29:                                               ; preds = %27
  %30 = load i32, ptr %3, align 4, !tbaa !34
  %31 = and i32 %30, -1331
  store i32 %31, ptr %3, align 4, !tbaa !34
  %32 = getelementptr inbounds nuw i8, ptr %3, i64 4
  %33 = load i32, ptr %32, align 4, !tbaa !35
  %34 = or i32 %33, 4
  store i32 %34, ptr %32, align 4, !tbaa !35
  %35 = getelementptr inbounds nuw i8, ptr %3, i64 8
  %36 = load i32, ptr %35, align 4, !tbaa !36
  %37 = or i32 %36, 48
  store i32 %37, ptr %35, align 4, !tbaa !36
  %38 = getelementptr inbounds nuw i8, ptr %3, i64 12
  %39 = load i32, ptr %38, align 4, !tbaa !37
  %40 = and i32 %39, -32780
  store i32 %40, ptr %38, align 4, !tbaa !37
  %41 = getelementptr inbounds nuw i8, ptr %3, i64 23
  store i8 1, ptr %41, align 1, !tbaa !33
  %42 = getelementptr inbounds nuw i8, ptr %3, i64 22
  store i8 0, ptr %42, align 2, !tbaa !33
  br label %.preheader30

43:                                               ; preds = %27
  call void @cfmakeraw(ptr noundef nonnull %3) #8
  br label %.preheader30

.preheader30:                                     ; preds = %43, %29, %27
  br label %44

44:                                               ; preds = %.preheader30, %47
  %45 = call i32 @tcsetattr(i32 noundef %9, i32 noundef 1, ptr noundef nonnull %3) #8
  %46 = icmp eq i32 %45, -1
  br i1 %46, label %47, label %uv__tcsetattr.exit.thread

47:                                               ; preds = %44
  %48 = tail call ptr @__errno_location() #9
  %49 = load i32, ptr %48, align 4, !tbaa !4
  %50 = icmp eq i32 %49, 4
  br i1 %50, label %44, label %uv__tcsetattr.exit, !llvm.loop !8

uv__tcsetattr.exit:                               ; preds = %47
  %51 = sub nsw i32 0, %49
  %52 = icmp eq i32 %49, 0
  br i1 %52, label %uv__tcsetattr.exit.thread, label %53

uv__tcsetattr.exit.thread:                        ; preds = %44, %uv__tcsetattr.exit
  store i32 %1, ptr %4, align 4, !tbaa !11
  br label %53

53:                                               ; preds = %uv__tcsetattr.exit, %uv__tcsetattr.exit.thread, %2, %.critedge
  %.0 = phi i32 [ %20, %.critedge ], [ 0, %2 ], [ 0, %uv__tcsetattr.exit.thread ], [ %51, %uv__tcsetattr.exit ]
  call void @llvm.lifetime.end.p0(i64 60, ptr nonnull %3) #8
  ret i32 %.0
}